; Function Attrs: mustprogress nofree norecurse nosync nounwind willreturn memory(read, argmem: readwrite, inaccessiblemem: none) uwtable
define void @_ZNK3gmx16ScaleCoordinatesclEPNS_11BasicVectorIfEE(ptr nocapture noundef nonnull readonly align 8 dereferenceable(8) %0, ptr nocapture noundef %1) local_unnamed_addr #6 align 2 {
.lr.ph.i:
  %2 = load ptr, ptr %0, align 8
  %3 = getelementptr inbounds i8, ptr %2, i64 4
  %4 = getelementptr inbounds i8, ptr %2, i64 8
  %5 = load float, ptr %2, align 4
  %6 = load float, ptr %1, align 4
  %7 = fmul float %5, %6
  store float %7, ptr %1, align 4
  %8 = load float, ptr %3, align 4
  %9 = getelementptr inbounds i8, ptr %1, i64 4
  %10 = load float, ptr %9, align 4
  %11 = fmul float %8, %10
  store float %11, ptr %9, align 4
  %12 = load float, ptr %4, align 4
  %13 = getelementptr inbounds i8, ptr %1, i64 8
  %14 = load float, ptr %13, align 4
  %15 = fmul float %12, %14
  store float %15, ptr %13, align 4
  ret void
}